target datalayout = "e-m:e-p270:32:32-p271:32:32-p272:64:64-i64:64-i128:128-f80:128-n8:16:32:64-S128"
target triple = "x86_64-pc-linux-gnu"

%struct._packet_info = type { ptr, ptr, i32, i32, %struct.nstime_t, %struct.nstime_t, %struct.nstime_t, i8, ptr, ptr, ptr, ptr, %struct._address, %struct._address, %struct._address, %struct._address, %struct._address, %struct._address, i32, ptr, i8, [3 x i8], %struct.anon.7, i32, i32, i32, i32, ptr, i8, ptr, ptr, i16, i16, i32, i32, i16, i32, i32, ptr, ptr, ptr, i8, i8, i16, i16, i16, i32, i16, i16, ptr, ptr, ptr, ptr, ptr, i32, i32 }
%struct.nstime_t = type { i64, i32 }
%struct._address = type { i32, i32, ptr, ptr }
%struct.anon.7 = type { i8, [3 x i8] }
%struct.ngap_private_data = type { ptr, i32, i32, i32, i32, i32, i8, i8, i8, ptr, ptr, i32, i32, i8, ptr }
%struct.ngap_conv_info = type { %struct._address, i32, i32, %struct._address, i32, i32, ptr, ptr }
%struct._wmem_tree_key_t = type { i32, ptr }

@proto_ngap = internal global i32 0, align 4

; Function Attrs: null_pointer_is_valid sspstrong uwtable
define internal ptr @ngap_get_private_data(ptr noundef %0) #0 {
  %2 = alloca ptr, align 8
  %3 = alloca ptr, align 8
  store ptr %0, ptr %2, align 8
  call void @llvm.lifetime.start.p0(i64 8, ptr %3) #11
  %4 = load ptr, ptr %2, align 8
  %5 = getelementptr inbounds nuw %struct._packet_info, ptr %4, i32 0, i32 51
  %6 = load ptr, ptr %5, align 8
  %7 = load ptr, ptr %2, align 8
  %8 = load i32, ptr @proto_ngap, align 4
  %9 = call ptr @p_get_proto_data(ptr noundef %6, ptr noundef %7, i32 noundef %8, i32 noundef 0)
  store ptr %9, ptr %3, align 8
  %10 = load ptr, ptr %3, align 8
  %11 = icmp ne ptr %10, null
  br i1 %11, label %27, label %12

12:                                               ; preds = %1
  %13 = load ptr, ptr %2, align 8
  %14 = getelementptr inbounds nuw %struct._packet_info, ptr %13, i32 0, i32 51
  %15 = load ptr, ptr %14, align 8
  %16 = call noalias ptr @wmem_alloc0(ptr noundef %15, i64 noundef 72) #12
  store ptr %16, ptr %3, align 8
  %17 = load ptr, ptr %3, align 8
  %18 = getelementptr inbounds nuw %struct.ngap_private_data, ptr %17, i32 0, i32 5
  store i32 -1, ptr %18, align 8
  %19 = load ptr, ptr %3, align 8
  %20 = getelementptr inbounds nuw %struct.ngap_private_data, ptr %19, i32 0, i32 13
  store i8 -1, ptr %20, align 8
  %21 = load ptr, ptr %2, align 8
  %22 = getelementptr inbounds nuw %struct._packet_info, ptr %21, i32 0, i32 51
  %23 = load ptr, ptr %22, align 8
  %24 = load ptr, ptr %2, align 8
  %25 = load i32, ptr @proto_ngap, align 4
  %26 = load ptr, ptr %3, align 8
  call void @p_add_proto_data(ptr noundef %23, ptr noundef %24, i32 noundef %25, i32 noundef 0, ptr noundef %26)
  br label %27

27:                                               ; preds = %12, %1
  %28 = load ptr, ptr %3, align 8
  call void @llvm.lifetime.end.p0(i64 8, ptr %3) #11
  ret ptr %28
}

; Function Attrs: null_pointer_is_valid sspstrong uwtable
define internal zeroext i1 @ngap_is_nbiot_ue(ptr noundef %0) #0 {
  %2 = alloca i1, align 1
  %3 = alloca ptr, align 8
  %4 = alloca ptr, align 8
  %5 = alloca [3 x %struct._wmem_tree_key_t], align 16
  %6 = alloca ptr, align 8
  %7 = alloca i32, align 4
  store ptr %0, ptr %3, align 8
  call void @llvm.lifetime.start.p0(i64 8, ptr %4) #11
  %8 = load ptr, ptr %3, align 8
  %9 = call ptr @ngap_get_private_data(ptr noundef %8)
  store ptr %9, ptr %4, align 8
  %10 = load ptr, ptr %4, align 8
  %11 = getelementptr inbounds nuw %struct.ngap_private_data, ptr %10, i32 0, i32 0
  %12 = load ptr, ptr %11, align 8
  %13 = icmp ne ptr %12, null
  br i1 %13, label %14, label %52

14:                                               ; preds = %1
  call void @llvm.lifetime.start.p0(i64 48, ptr %5) #11
  call void @llvm.lifetime.start.p0(i64 8, ptr %6) #11
  %15 = getelementptr [3 x %struct._wmem_tree_key_t], ptr %5, i64 0, i64 0
  %16 = getelementptr inbounds nuw %struct._wmem_tree_key_t, ptr %15, i32 0, i32 0
  store i32 1, ptr %16, align 16
  %17 = load ptr, ptr %4, align 8
  %18 = getelementptr inbounds nuw %struct.ngap_private_data, ptr %17, i32 0, i32 11
  %19 = getelementptr [3 x %struct._wmem_tree_key_t], ptr %5, i64 0, i64 0
  %20 = getelementptr inbounds nuw %struct._wmem_tree_key_t, ptr %19, i32 0, i32 1
  store ptr %18, ptr %20, align 8
  %21 = getelementptr [3 x %struct._wmem_tree_key_t], ptr %5, i64 0, i64 1
  %22 = getelementptr inbounds nuw %struct._wmem_tree_key_t, ptr %21, i32 0, i32 0
  store i32 1, ptr %22, align 16
  %23 = load ptr, ptr %3, align 8
  %24 = getelementptr inbounds nuw %struct._packet_info, ptr %23, i32 0, i32 3
  %25 = getelementptr [3 x %struct._wmem_tree_key_t], ptr %5, i64 0, i64 1
  %26 = getelementptr inbounds nuw %struct._wmem_tree_key_t, ptr %25, i32 0, i32 1
  store ptr %24, ptr %26, align 8
  %27 = getelementptr [3 x %struct._wmem_tree_key_t], ptr %5, i64 0, i64 2
  %28 = getelementptr inbounds nuw %struct._wmem_tree_key_t, ptr %27, i32 0, i32 0
  store i32 0, ptr %28, align 16
  %29 = getelementptr [3 x %struct._wmem_tree_key_t], ptr %5, i64 0, i64 2
  %30 = getelementptr inbounds nuw %struct._wmem_tree_key_t, ptr %29, i32 0, i32 1
  store ptr null, ptr %30, align 8
  %31 = load ptr, ptr %4, align 8
  %32 = getelementptr inbounds nuw %struct.ngap_private_data, ptr %31, i32 0, i32 0
  %33 = load ptr, ptr %32, align 8
  %34 = getelementptr inbounds nuw %struct.ngap_conv_info, ptr %33, i32 0, i32 7
  %35 = load ptr, ptr %34, align 8
  %36 = getelementptr inbounds [3 x %struct._wmem_tree_key_t], ptr %5, i64 0, i64 0
  %37 = call ptr @wmem_tree_lookup32_array_le(ptr noundef %35, ptr noundef %36)
  store ptr %37, ptr %6, align 8
  %38 = load ptr, ptr %6, align 8
  %39 = icmp ne ptr %38, null
  br i1 %39, label %40, label %48

40:                                               ; preds = %14
  %41 = load ptr, ptr %6, align 8
  %42 = load i32, ptr %41, align 4
  %43 = load ptr, ptr %4, align 8
  %44 = getelementptr inbounds nuw %struct.ngap_private_data, ptr %43, i32 0, i32 11
  %45 = load i32, ptr %44, align 8
  %46 = icmp eq i32 %42, %45
  br i1 %46, label %47, label %48

47:                                               ; preds = %40
  store i1 true, ptr %2, align 1
  store i32 1, ptr %7, align 4
  br label %49

48:                                               ; preds = %40, %14
  store i32 0, ptr %7, align 4
  br label %49

49:                                               ; preds = %48, %47
  call void @llvm.lifetime.end.p0(i64 8, ptr %6) #11
  call void @llvm.lifetime.end.p0(i64 48, ptr %5) #11
  %50 = load i32, ptr %7, align 4
  switch i32 %50, label %53 [
    i32 0, label %51
  ]

51:                                               ; preds = %49
  br label %52

52:                                               ; preds = %51, %1
  store i1 false, ptr %2, align 1
  store i32 1, ptr %7, align 4
  br label %53

53:                                               ; preds = %52, %49
  call void @llvm.lifetime.end.p0(i64 8, ptr %4) #11
  %54 = load i1, ptr %2, align 1
  ret i1 %54
}