; Function Attrs: null_pointer_is_valid sspstrong uwtable
define internal fastcc zeroext i1 @ngap_is_nbiot_ue(ptr noundef %0) unnamed_addr #0 {
  %2 = alloca [3 x %struct._wmem_tree_key_t], align 16
  %3 = getelementptr inbounds nuw i8, ptr %0, i64 408
  %4 = load ptr, ptr %3, align 8
  %5 = load i32, ptr @proto_ngap, align 4
  %6 = tail call ptr @p_get_proto_data(ptr noundef %4, ptr noundef %0, i32 noundef %5, i32 noundef 0)
  %.not.i = icmp eq ptr %6, null
  br i1 %.not.i, label %7, label %ngap_get_private_data.exit

7:                                                ; preds = %1
  %8 = load ptr, ptr %3, align 8
  %9 = tail call noalias dereferenceable_or_null(72) ptr @wmem_alloc0(ptr noundef %8, i64 noundef 72) #13
  %10 = getelementptr inbounds nuw i8, ptr %9, i64 24
  store i32 -1, ptr %10, align 8
  %11 = getelementptr inbounds nuw i8, ptr %9, i64 56
  store i8 -1, ptr %11, align 8
  %12 = load ptr, ptr %3, align 8
  %13 = load i32, ptr @proto_ngap, align 4
  tail call void @p_add_proto_data(ptr noundef %12, ptr noundef %0, i32 noundef %13, i32 noundef 0, ptr noundef %9)
  br label %ngap_get_private_data.exit

ngap_get_private_data.exit:                       ; preds = %1, %7
  %.0.i = phi ptr [ %6, %1 ], [ %9, %7 ]
  %14 = load ptr, ptr %.0.i, align 8
  %.not = icmp eq ptr %14, null
  br i1 %.not, label %30, label %15

15:                                               ; preds = %ngap_get_private_data.exit
  call void @llvm.lifetime.start.p0(i64 48, ptr nonnull %2) #12
  store i32 1, ptr %2, align 16
  %16 = getelementptr inbounds nuw i8, ptr %.0.i, i64 48
  %17 = getelementptr inbounds nuw i8, ptr %2, i64 8
  store ptr %16, ptr %17, align 8
  %18 = getelementptr inbounds nuw i8, ptr %2, i64 16
  store i32 1, ptr %18, align 16
  %19 = getelementptr inbounds nuw i8, ptr %0, i64 20
  %20 = getelementptr inbounds nuw i8, ptr %2, i64 24
  store ptr %19, ptr %20, align 8
  %21 = getelementptr inbounds nuw i8, ptr %2, i64 32
  store i32 0, ptr %21, align 16
  %22 = getelementptr inbounds nuw i8, ptr %2, i64 40
  store ptr null, ptr %22, align 8
  %23 = getelementptr inbounds nuw i8, ptr %14, i64 72
  %24 = load ptr, ptr %23, align 8
  %25 = call ptr @wmem_tree_lookup32_array_le(ptr noundef %24, ptr noundef nonnull %2)
  %.not11 = icmp eq ptr %25, null
  br i1 %.not11, label %.sink.split, label %26

26:                                               ; preds = %15
  %27 = load i32, ptr %25, align 4
  %28 = load i32, ptr %16, align 8
  %29 = icmp eq i32 %27, %28
  br label %.sink.split

.sink.split:                                      ; preds = %26, %15
  %.1.ph = phi i1 [ false, %15 ], [ %29, %26 ]
  call void @llvm.lifetime.end.p0(i64 48, ptr nonnull %2) #12
  br label %30

30:                                               ; preds = %.sink.split, %ngap_get_private_data.exit
  %.1 = phi i1 [ false, %ngap_get_private_data.exit ], [ %.1.ph, %.sink.split ]
  ret i1 %.1
}